target datalayout = "e-m:e-p270:32:32-p271:32:32-p272:64:64-i64:64-i128:128-f80:128-n8:16:32:64-S128"
target triple = "x86_64-pc-linux-gnu"

%"struct.base::(anonymous namespace)::SampleRecord" = type { i64, i32, i32 }

; Function Attrs: mustprogress uwtable
define linkonce_odr noundef ptr @_ZN4base25PersistentMemoryAllocator12GetBlockDataEjjj(ptr noundef nonnull align 8 dereferenceable(48) %0, i32 noundef %1, i32 noundef %2, i32 noundef %3) #0 comdat align 2 {
  %5 = alloca ptr, align 8
  %6 = alloca i32, align 4
  %7 = alloca i32, align 4
  %8 = alloca i32, align 4
  store ptr %0, ptr %5, align 8, !tbaa !74
  store i32 %1, ptr %6, align 4, !tbaa !34
  store i32 %2, ptr %7, align 4, !tbaa !34
  store i32 %3, ptr %8, align 4, !tbaa !34
  %9 = load ptr, ptr %5, align 8
  %10 = load i32, ptr %6, align 4, !tbaa !34
  %11 = load i32, ptr %7, align 4, !tbaa !34
  %12 = load i32, ptr %8, align 4, !tbaa !34
  %13 = call noundef ptr @_ZNK4base25PersistentMemoryAllocator12GetBlockDataEjjj(ptr noundef nonnull align 8 dereferenceable(48) %9, i32 noundef %10, i32 noundef %11, i32 noundef %12)
  ret ptr %13
}

; Function Attrs: mustprogress uwtable
define internal noundef ptr @_ZN4base25PersistentMemoryAllocator11GetAsObjectINS_12_GLOBAL__N_112SampleRecordEEEPT_jj(ptr noundef nonnull align 8 dereferenceable(48) %0, i32 noundef %1, i32 noundef %2) #0 align 2 {
  %4 = alloca ptr, align 8
  %5 = alloca i32, align 4
  %6 = alloca i32, align 4
  store ptr %0, ptr %4, align 8, !tbaa !74
  store i32 %1, ptr %5, align 4, !tbaa !34
  store i32 %2, ptr %6, align 4, !tbaa !34
  %7 = load ptr, ptr %4, align 8
  %8 = load i32, ptr %5, align 4, !tbaa !34
  %9 = load i32, ptr %6, align 4, !tbaa !34
  %10 = call noundef ptr @_ZN4base25PersistentMemoryAllocator12GetBlockDataEjjj(ptr noundef nonnull align 8 dereferenceable(48) %7, i32 noundef %8, i32 noundef %9, i32 noundef 16)
  ret ptr %10
}

; Function Attrs: mustprogress uwtable
define noundef i32 @_ZN4base19PersistentSampleMap22CreatePersistentRecordEPNS_25PersistentMemoryAllocatorEmi(ptr noundef %0, i64 noundef %1, i32 noundef %2) #0 align 2 {
  %4 = alloca i32, align 4
  %5 = alloca ptr, align 8
  %6 = alloca i64, align 8
  %7 = alloca i32, align 4
  %8 = alloca i32, align 4
  %9 = alloca ptr, align 8
  %10 = alloca i32, align 4
  store ptr %0, ptr %5, align 8, !tbaa !74
  store i64 %1, ptr %6, align 8, !tbaa !8
  store i32 %2, ptr %7, align 4, !tbaa !34
  call void @llvm.lifetime.start.p0(i64 4, ptr %8) #14
  %11 = load ptr, ptr %5, align 8, !tbaa !74
  %12 = call noundef i32 @_ZN4base25PersistentMemoryAllocator8AllocateEmj(ptr noundef nonnull align 8 dereferenceable(48) %11, i64 noundef 16, i32 noundef -1880709472)
  store i32 %12, ptr %8, align 4, !tbaa !34
  call void @llvm.lifetime.start.p0(i64 8, ptr %9) #14
  %13 = load ptr, ptr %5, align 8, !tbaa !74
  %14 = load i32, ptr %8, align 4, !tbaa !34
  %15 = call noundef ptr @_ZN4base25PersistentMemoryAllocator11GetAsObjectINS_12_GLOBAL__N_112SampleRecordEEEPT_jj(ptr noundef nonnull align 8 dereferenceable(48) %13, i32 noundef %14, i32 noundef -1880709472)
  store ptr %15, ptr %9, align 8, !tbaa !44
  %16 = load ptr, ptr %9, align 8, !tbaa !44
  %17 = icmp ne ptr %16, null
  br i1 %17, label %19, label %18

18:                                               ; preds = %3
  store i32 0, ptr %4, align 4
  store i32 1, ptr %10, align 4
  br label %31

19:                                               ; preds = %3
  %20 = load i64, ptr %6, align 8, !tbaa !8
  %21 = load ptr, ptr %9, align 8, !tbaa !44
  %22 = getelementptr inbounds nuw %"struct.base::(anonymous namespace)::SampleRecord", ptr %21, i32 0, i32 0
  store i64 %20, ptr %22, align 8, !tbaa !68
  %23 = load i32, ptr %7, align 4, !tbaa !34
  %24 = load ptr, ptr %9, align 8, !tbaa !44
  %25 = getelementptr inbounds nuw %"struct.base::(anonymous namespace)::SampleRecord", ptr %24, i32 0, i32 1
  store i32 %23, ptr %25, align 8, !tbaa !48
  %26 = load ptr, ptr %9, align 8, !tbaa !44
  %27 = getelementptr inbounds nuw %"struct.base::(anonymous namespace)::SampleRecord", ptr %26, i32 0, i32 2
  store i32 0, ptr %27, align 4, !tbaa !75
  %28 = load ptr, ptr %5, align 8, !tbaa !74
  %29 = load i32, ptr %8, align 4, !tbaa !34
  call void @_ZN4base25PersistentMemoryAllocator12MakeIterableEj(ptr noundef nonnull align 8 dereferenceable(48) %28, i32 noundef %29)
  %30 = load i32, ptr %8, align 4, !tbaa !34
  store i32 %30, ptr %4, align 4
  store i32 1, ptr %10, align 4
  br label %31

31:                                               ; preds = %19, %18
  call void @llvm.lifetime.end.p0(i64 8, ptr %9) #14
  call void @llvm.lifetime.end.p0(i64 4, ptr %8) #14
  %32 = load i32, ptr %4, align 4
  ret i32 %32
}