; Function Attrs: mustprogress uwtable
define noundef i32 @_ZN4base19PersistentSampleMap22CreatePersistentRecordEPNS_25PersistentMemoryAllocatorEmi(ptr noundef nonnull %0, i64 noundef %1, i32 noundef %2) local_unnamed_addr #0 align 2 {
  %4 = tail call noundef i32 @_ZN4base25PersistentMemoryAllocator8AllocateEmj(ptr noundef nonnull align 8 dereferenceable(48) %0, i64 noundef 16, i32 noundef -1880709472)
  %5 = tail call noundef ptr @_ZNK4base25PersistentMemoryAllocator12GetBlockDataEjjj(ptr noundef nonnull align 8 dereferenceable(48) %0, i32 noundef %4, i32 noundef -1880709472, i32 noundef 16)
  %.not = icmp eq ptr %5, null
  br i1 %.not, label %9, label %6

6:                                                ; preds = %3
  store i64 %1, ptr %5, align 8, !tbaa !73
  %7 = getelementptr inbounds nuw i8, ptr %5, i64 8
  store i32 %2, ptr %7, align 8, !tbaa !64
  %8 = getelementptr inbounds nuw i8, ptr %5, i64 12
  store i32 0, ptr %8, align 4, !tbaa !75
  tail call void @_ZN4base25PersistentMemoryAllocator12MakeIterableEj(ptr noundef nonnull align 8 dereferenceable(48) %0, i32 noundef %4)
  br label %9

9:                                                ; preds = %3, %6
  %.0 = phi i32 [ %4, %6 ], [ 0, %3 ]
  ret i32 %.0
}